target datalayout = "e-m:e-p270:32:32-p271:32:32-p272:64:64-i64:64-i128:128-f80:128-n8:16:32:64-S128"
target triple = "x86_64-pc-linux-gnu"

%struct.H5B_iter_ud_t = type { ptr, ptr }

@H5B_init_g = global i8 0, align 1
@H5_libterm_g = external global i8, align 1
@.str.3 = private unnamed_addr constant [97 x i8] c"generated/home/dtcxzyw/WorkSpace/Projects/compilers/llvm-opt-benchmark/bench/hdf5/hdf5/src/H5B.c\00", align 1
@H5E_BTREE_g = external global i64, align 8
@H5E_BADITER_g = external global i64, align 8
@.str.24 = private unnamed_addr constant [24 x i8] c"B-tree iteration failed\00", align 1
@__func__.H5B_get_info = private unnamed_addr constant [13 x i8] c"H5B_get_info\00", align 1

; Function Attrs: nounwind uwtable
define i32 @H5B_get_info(ptr noundef %0, ptr noundef %1, i64 noundef %2, ptr noundef %3, ptr noundef %4, ptr noundef %5) #0 {
  %7 = alloca ptr, align 8
  %8 = alloca ptr, align 8
  %9 = alloca i64, align 8
  %10 = alloca ptr, align 8
  %11 = alloca ptr, align 8
  %12 = alloca ptr, align 8
  %13 = alloca %struct.H5B_iter_ud_t, align 8
  %14 = alloca i32, align 4
  %15 = alloca i8, align 1
  store ptr %0, ptr %7, align 8, !tbaa !3
  store ptr %1, ptr %8, align 8, !tbaa !8
  store i64 %2, ptr %9, align 8, !tbaa !23
  store ptr %3, ptr %10, align 8, !tbaa !90
  store ptr %4, ptr %11, align 8, !tbaa !10
  store ptr %5, ptr %12, align 8, !tbaa !10
  call void @llvm.lifetime.start.p0(i64 16, ptr %13) #6
  call void @llvm.lifetime.start.p0(i64 4, ptr %14) #6
  store i32 0, ptr %14, align 4, !tbaa !17
  call void @llvm.lifetime.start.p0(i64 1, ptr %15) #6
  store i8 0, ptr %15, align 1, !tbaa !19
  %16 = load i8, ptr @H5B_init_g, align 1, !tbaa !19, !range !21, !noundef !22
  %17 = trunc i8 %16 to i1
  br i1 %17, label %22, label %18

18:                                               ; preds = %6
  %19 = load i8, ptr @H5_libterm_g, align 1, !tbaa !19, !range !21, !noundef !22
  %20 = trunc i8 %19 to i1
  %21 = xor i1 %20, true
  br label %22

22:                                               ; preds = %18, %6
  %23 = phi i1 [ false, %6 ], [ %21, %18 ]
  %24 = xor i1 %23, true
  %25 = xor i1 %24, true
  %26 = zext i1 %25 to i32
  %27 = sext i32 %26 to i64
  %28 = call i64 @llvm.expect.i64(i64 %27, i64 0)
  %29 = icmp ne i64 %28, 0
  br i1 %29, label %30, label %31

30:                                               ; preds = %22
  store i8 1, ptr @H5B_init_g, align 1, !tbaa !19
  br label %31

31:                                               ; preds = %30, %22
  %32 = load i8, ptr @H5B_init_g, align 1, !tbaa !19, !range !21, !noundef !22
  %33 = trunc i8 %32 to i1
  br i1 %33, label %38, label %34

34:                                               ; preds = %31
  %35 = load i8, ptr @H5_libterm_g, align 1, !tbaa !19, !range !21, !noundef !22
  %36 = trunc i8 %35 to i1
  %37 = xor i1 %36, true
  br label %38

38:                                               ; preds = %34, %31
  %39 = phi i1 [ true, %31 ], [ %37, %34 ]
  %40 = xor i1 %39, true
  %41 = xor i1 %40, true
  %42 = zext i1 %41 to i32
  %43 = sext i32 %42 to i64
  %44 = call i64 @llvm.expect.i64(i64 %43, i64 1)
  %45 = icmp ne i64 %44, 0
  br i1 %45, label %46, label %97

46:                                               ; preds = %38
  %47 = load ptr, ptr %10, align 8, !tbaa !90
  call void @llvm.memset.p0.i64(ptr align 8 %47, i8 0, i64 16, i1 false)
  %48 = load ptr, ptr %10, align 8, !tbaa !90
  %49 = getelementptr inbounds nuw %struct.H5B_iter_ud_t, ptr %13, i32 0, i32 0
  store ptr %48, ptr %49, align 8, !tbaa !92
  %50 = load ptr, ptr %12, align 8, !tbaa !10
  %51 = getelementptr inbounds nuw %struct.H5B_iter_ud_t, ptr %13, i32 0, i32 1
  store ptr %50, ptr %51, align 8, !tbaa !94
  %52 = load ptr, ptr %7, align 8, !tbaa !3
  %53 = load ptr, ptr %8, align 8, !tbaa !8
  %54 = load i64, ptr %9, align 8, !tbaa !23
  %55 = call i32 @H5B__get_info_helper(ptr noundef %52, ptr noundef %53, i64 noundef %54, ptr noundef %13)
  %56 = icmp slt i32 %55, 0
  br i1 %56, label %57, label %76

57:                                               ; preds = %46
  br label %58

58:                                               ; preds = %57
  br label %59

59:                                               ; preds = %58
  br label %60

60:                                               ; preds = %59
  %61 = load i64, ptr @H5E_BTREE_g, align 8, !tbaa !23
  %62 = load i64, ptr @H5E_BADITER_g, align 8, !tbaa !23
  %63 = call i32 (ptr, ptr, i32, i64, i64, ptr, ...) @H5E_printf_stack(ptr noundef @.str.3, ptr noundef @__func__.H5B_get_info, i32 noundef 1885, i64 noundef %61, i64 noundef %62, ptr noundef @.str.24)
  br label %64

64:                                               ; preds = %60
  br label %65

65:                                               ; preds = %64
  store i8 1, ptr %15, align 1, !tbaa !19
  %66 = load i8, ptr %15, align 1, !tbaa !19, !range !21, !noundef !22
  %67 = trunc i8 %66 to i1
  %68 = zext i1 %67 to i8
  store i8 %68, ptr %15, align 1, !tbaa !19
  br label %69

69:                                               ; preds = %65
  br label %70

70:                                               ; preds = %69
  br label %71

71:                                               ; preds = %70
  store i32 -1, ptr %14, align 4, !tbaa !17
  br label %96

72:                                               ; No predecessors!
  br label %73

73:                                               ; preds = %72
  br label %74

74:                                               ; preds = %73
  br label %75

75:                                               ; preds = %74
  br label %76

76:                                               ; preds = %75, %46
  %77 = load ptr, ptr %11, align 8, !tbaa !10
  %78 = icmp ne ptr %77, null
  br i1 %78, label %79, label %95

79:                                               ; preds = %76
  %80 = load ptr, ptr %7, align 8, !tbaa !3
  %81 = load ptr, ptr %8, align 8, !tbaa !8
  %82 = load i64, ptr %9, align 8, !tbaa !23
  %83 = load ptr, ptr %11, align 8, !tbaa !10
  %84 = load ptr, ptr %12, align 8, !tbaa !10
  %85 = call i32 @H5B__iterate_helper(ptr noundef %80, ptr noundef %81, i64 noundef %82, i32 noundef -1, ptr noundef %83, ptr noundef %84)
  store i32 %85, ptr %14, align 4, !tbaa !17
  %86 = icmp slt i32 %85, 0
  br i1 %86, label %87, label %94

87:                                               ; preds = %79
  br label %88

88:                                               ; preds = %87
  %89 = load i64, ptr @H5E_BTREE_g, align 8, !tbaa !23
  %90 = load i64, ptr @H5E_BADITER_g, align 8, !tbaa !23
  %91 = call i32 (ptr, ptr, i32, i64, i64, ptr, ...) @H5E_printf_stack(ptr noundef @.str.3, ptr noundef @__func__.H5B_get_info, i32 noundef 1891, i64 noundef %89, i64 noundef %90, ptr noundef @.str.24)
  br label %92

92:                                               ; preds = %88
  br label %93

93:                                               ; preds = %92
  br label %94

94:                                               ; preds = %93, %79
  br label %95

95:                                               ; preds = %94, %76
  br label %96

96:                                               ; preds = %95, %71
  br label %97

97:                                               ; preds = %96, %38
  %98 = load i32, ptr %14, align 4, !tbaa !17
  call void @llvm.lifetime.end.p0(i64 1, ptr %15) #6
  call void @llvm.lifetime.end.p0(i64 4, ptr %14) #6
  call void @llvm.lifetime.end.p0(i64 16, ptr %13) #6
  ret i32 %98
}