; Function Attrs: nounwind uwtable
define i32 @H5B_get_info(ptr noundef %0, ptr noundef %1, i64 noundef %2, ptr noundef %3, ptr noundef readonly captures(address_is_null) %4, ptr noundef %5) local_unnamed_addr #0 {
  %7 = alloca %struct.H5B_iter_ud_t, align 8
  call void @llvm.lifetime.start.p0(i64 16, ptr nonnull %7) #6
  %8 = load i8, ptr @H5B_init_g, align 1, !tbaa !3, !range !7, !noundef !8
  %9 = trunc nuw i8 %8 to i1
  %10 = load i8, ptr @H5_libterm_g, align 1, !range !7
  %11 = trunc nuw i8 %10 to i1
  %12 = select i1 %9, i1 true, i1 %11
  br i1 %12, label %13, label %.thread, !prof !9

.thread:                                          ; preds = %6
  store i8 1, ptr @H5B_init_g, align 1, !tbaa !3
  br label %16

13:                                               ; preds = %6
  %14 = xor i1 %11, true
  %15 = select i1 %9, i1 true, i1 %14
  br i1 %15, label %16, label %27, !prof !10

16:                                               ; preds = %.thread, %13
  tail call void @llvm.memset.p0.i64(ptr noundef nonnull align 8 dereferenceable(16) %3, i8 0, i64 16, i1 false)
  store ptr %3, ptr %7, align 8, !tbaa !80
  %17 = getelementptr inbounds nuw i8, ptr %7, i64 8
  store ptr %5, ptr %17, align 8, !tbaa !83
  %18 = call fastcc i32 @H5B__get_info_helper(ptr noundef %0, ptr noundef %1, i64 noundef %2, ptr noundef %7)
  %19 = icmp slt i32 %18, 0
  br i1 %19, label %.sink.split, label %20

20:                                               ; preds = %16
  %.not = icmp eq ptr %4, null
  br i1 %.not, label %27, label %21

21:                                               ; preds = %20
  %22 = tail call fastcc i32 @H5B__iterate_helper(ptr noundef %0, ptr noundef %1, i64 noundef %2, i32 noundef -1, ptr noundef nonnull %4, ptr noundef %5)
  %23 = icmp slt i32 %22, 0
  br i1 %23, label %.sink.split, label %27

.sink.split:                                      ; preds = %21, %16
  %.sink = phi i32 [ 1885, %16 ], [ 1891, %21 ]
  %.0.ph = phi i32 [ -1, %16 ], [ %22, %21 ]
  %24 = load i64, ptr @H5E_BTREE_g, align 8, !tbaa !29
  %25 = load i64, ptr @H5E_BADITER_g, align 8, !tbaa !29
  %26 = tail call i32 (ptr, ptr, i32, i64, i64, ptr, ...) @H5E_printf_stack(ptr noundef nonnull @.str.3, ptr noundef nonnull @__func__.H5B_get_info, i32 noundef %.sink, i64 noundef %24, i64 noundef %25, ptr noundef nonnull @.str.24) #6
  br label %27

27:                                               ; preds = %.sink.split, %21, %20, %13
  %.0 = phi i32 [ %22, %21 ], [ 0, %20 ], [ 0, %13 ], [ %.0.ph, %.sink.split ]
  call void @llvm.lifetime.end.p0(i64 16, ptr nonnull %7) #6
  ret i32 %.0
}